; Function Attrs: nounwind uwtable
define hidden range(i32 0, 2) i32 @CBB_add_u16_length_prefixed(ptr noundef captures(none) %0, ptr noundef %1) local_unnamed_addr #8 {
  %3 = tail call i32 @CBB_flush(ptr noundef %0)
  %.not.i = icmp eq i32 %3, 0
  br i1 %.not.i, label %cbb_add_length_prefixed.exit, label %4

4:                                                ; preds = %2
  %5 = load ptr, ptr %0, align 8, !tbaa !16
  %6 = getelementptr inbounds nuw i8, ptr %5, i64 8
  %7 = load i64, ptr %6, align 8, !tbaa !13
  %8 = add i64 %7, 2
  %9 = icmp ugt i64 %7, -3
  br i1 %9, label %cbb_add_length_prefixed.exit, label %10

10:                                               ; preds = %4
  %11 = getelementptr inbounds nuw i8, ptr %5, i64 16
  %12 = load i64, ptr %11, align 8, !tbaa !14
  %13 = icmp ugt i64 %8, %12
  br i1 %13, label %14, label %._crit_edge.i

._crit_edge.i:                                    ; preds = %10
  %.pre.i = load ptr, ptr %5, align 8, !tbaa !6
  br label %24

14:                                               ; preds = %10
  %15 = getelementptr inbounds nuw i8, ptr %5, i64 24
  %16 = load i8, ptr %15, align 8, !tbaa !15
  %.not.i.i.i = icmp eq i8 %16, 0
  br i1 %.not.i.i.i, label %cbb_add_length_prefixed.exit, label %17

17:                                               ; preds = %14
  %18 = shl i64 %12, 1
  %19 = icmp slt i64 %12, 0
  %20 = tail call i64 @llvm.umax.i64(i64 %18, i64 %8)
  %.026.i.i.i = select i1 %19, i64 %8, i64 %20
  %21 = load ptr, ptr %5, align 8, !tbaa !6
  %22 = tail call ptr @realloc(ptr noundef %21, i64 noundef %.026.i.i.i) #16
  %23 = icmp eq ptr %22, null
  br i1 %23, label %cbb_add_length_prefixed.exit, label %.critedge.i.i.i

.critedge.i.i.i:                                  ; preds = %17
  store ptr %22, ptr %5, align 8, !tbaa !6
  store i64 %.026.i.i.i, ptr %11, align 8, !tbaa !14
  %.pre.pre.i.i = load i64, ptr %6, align 8, !tbaa !13
  %.pre20.i = add i64 %.pre.pre.i.i, 2
  br label %24

24:                                               ; preds = %.critedge.i.i.i, %._crit_edge.i
  %.pre-phi.i = phi i64 [ %8, %._crit_edge.i ], [ %.pre20.i, %.critedge.i.i.i ]
  %25 = phi ptr [ %.pre.i, %._crit_edge.i ], [ %22, %.critedge.i.i.i ]
  %.pre.i.i = phi i64 [ %7, %._crit_edge.i ], [ %.pre.pre.i.i, %.critedge.i.i.i ]
  %26 = getelementptr inbounds nuw i8, ptr %25, i64 %.pre.i.i
  store i64 %.pre-phi.i, ptr %6, align 8, !tbaa !13
  store i16 0, ptr %26, align 1
  tail call void @llvm.memset.p0.i64(ptr noundef nonnull align 8 dereferenceable(32) %1, i8 0, i64 32, i1 false)
  %27 = load ptr, ptr %0, align 8, !tbaa !16
  store ptr %27, ptr %1, align 8, !tbaa !16
  %28 = getelementptr inbounds nuw i8, ptr %0, i64 8
  store ptr %1, ptr %28, align 8, !tbaa !23
  %29 = getelementptr inbounds nuw i8, ptr %1, i64 16
  store i64 %7, ptr %29, align 8, !tbaa !25
  %30 = getelementptr inbounds nuw i8, ptr %1, i64 24
  store i8 2, ptr %30, align 8, !tbaa !24
  br label %cbb_add_length_prefixed.exit

cbb_add_length_prefixed.exit:                     ; preds = %2, %4, %14, %17, %24
  %.0.i = phi i32 [ 0, %2 ], [ 1, %24 ], [ 0, %4 ], [ 0, %17 ], [ 0, %14 ]
  ret i32 %.0.i
}